target datalayout = "e-m:e-p270:32:32-p271:32:32-p272:64:64-i64:64-i128:128-f80:128-n8:16:32:64-S128"
target triple = "x86_64-pc-linux-gnu"

%struct.SDL_Process = type { i8, i8, i32, i32, ptr }
%struct.SDL_ProcessData = type { i32 }

@.str.26 = private unnamed_addr constant [21 x i8] c"Could not kill(): %s\00", align 1

; Function Attrs: nounwind uwtable
define hidden zeroext i1 @SDL_SYS_KillProcess(ptr noundef %0, i1 noundef zeroext %1) #0 {
  %3 = alloca i1, align 1
  %4 = alloca ptr, align 8
  %5 = alloca i8, align 1
  %6 = alloca i32, align 4
  %7 = alloca i32, align 4
  store ptr %0, ptr %4, align 8
  %8 = zext i1 %1 to i8
  store i8 %8, ptr %5, align 1
  call void @llvm.lifetime.start.p0(i64 4, ptr %6) #9
  %9 = load ptr, ptr %4, align 8
  %10 = getelementptr inbounds nuw %struct.SDL_Process, ptr %9, i32 0, i32 4
  %11 = load ptr, ptr %10, align 8
  %12 = getelementptr inbounds nuw %struct.SDL_ProcessData, ptr %11, i32 0, i32 0
  %13 = load i32, ptr %12, align 4
  %14 = load i8, ptr %5, align 1, !range !3, !noundef !4
  %15 = trunc i8 %14 to i1
  %16 = select i1 %15, i32 9, i32 15
  %17 = call i32 @kill(i32 noundef %13, i32 noundef %16) #9
  store i32 %17, ptr %6, align 4
  %18 = load i32, ptr %6, align 4
  %19 = icmp eq i32 %18, 0
  br i1 %19, label %20, label %21

20:                                               ; preds = %2
  store i1 true, ptr %3, align 1
  store i32 1, ptr %7, align 4
  br label %26

21:                                               ; preds = %2
  %22 = call ptr @__errno_location() #11
  %23 = load i32, ptr %22, align 4
  %24 = call ptr @strerror(i32 noundef %23) #9
  %25 = call zeroext i1 (ptr, ...) @SDL_SetError_REAL(ptr noundef @.str.26, ptr noundef %24)
  store i1 %25, ptr %3, align 1
  store i32 1, ptr %7, align 4
  br label %26

26:                                               ; preds = %21, %20
  call void @llvm.lifetime.end.p0(i64 4, ptr %6) #9
  %27 = load i1, ptr %3, align 1
  ret i1 %27
}