; Function Attrs: nounwind uwtable
define hidden zeroext i1 @SDL_SYS_KillProcess(ptr noundef readonly captures(none) %0, i1 noundef zeroext %1) local_unnamed_addr #0 {
  %3 = getelementptr inbounds nuw i8, ptr %0, i64 16
  %4 = load ptr, ptr %3, align 8
  %5 = load i32, ptr %4, align 4
  %6 = select i1 %1, i32 9, i32 15
  %7 = tail call i32 @kill(i32 noundef %5, i32 noundef %6) #10
  %8 = icmp eq i32 %7, 0
  br i1 %8, label %14, label %9

9:                                                ; preds = %2
  %10 = tail call ptr @__errno_location() #12
  %11 = load i32, ptr %10, align 4
  %12 = tail call ptr @strerror(i32 noundef %11) #10
  %13 = tail call zeroext i1 (ptr, ...) @SDL_SetError_REAL(ptr noundef nonnull @.str.26, ptr noundef %12) #10
  br label %14

14:                                               ; preds = %2, %9
  %.0 = phi i1 [ %13, %9 ], [ true, %2 ]
  ret i1 %.0
}